target datalayout = "e-m:e-p270:32:32-p271:32:32-p272:64:64-i64:64-i128:128-f80:128-n8:16:32:64-S128"
target triple = "x86_64-pc-linux-gnu"

%struct.KINMemRec = type { double, ptr, ptr, double, double, i32, i32, i64, i64, i64, i64, i32, i32, i32, i32, i32, i32, i32, i32, i32, double, double, double, double, double, double, double, double, double, i32, double, i64, i64, i64, i64, i64, i64, i64, ptr, ptr, ptr, ptr, ptr, ptr, ptr, ptr, ptr, ptr, ptr, ptr, ptr, ptr, ptr, ptr, ptr, ptr, i64, i32, i32, i64, i64, i64, i64, ptr, ptr, ptr, ptr, i32, ptr, double, double, double, double, double, i32, double, double, double, i32, ptr, ptr, ptr, ptr, ptr, ptr }

@.str.38 = private unnamed_addr constant [8 x i8] c"WARNING\00", align 1
@.str.39 = private unnamed_addr constant [6 x i8] c"ERROR\00", align 1
@.str.40 = private unnamed_addr constant [14 x i8] c"\0A[%s %s]  %s\0A\00", align 1
@.str.41 = private unnamed_addr constant [7 x i8] c"  %s\0A\0A\00", align 1

; Function Attrs: nounwind uwtable
define void @KINErrHandler(i32 noundef %0, ptr noundef %1, ptr noundef %2, ptr noundef %3, ptr noundef %4) #0 {
  %6 = alloca i32, align 4
  %7 = alloca ptr, align 8
  %8 = alloca ptr, align 8
  %9 = alloca ptr, align 8
  %10 = alloca ptr, align 8
  %11 = alloca ptr, align 8
  %12 = alloca [10 x i8], align 1
  store i32 %0, ptr %6, align 4, !tbaa !70
  store ptr %1, ptr %7, align 8, !tbaa !71
  store ptr %2, ptr %8, align 8, !tbaa !71
  store ptr %3, ptr %9, align 8, !tbaa !71
  store ptr %4, ptr %10, align 8, !tbaa !73
  call void @llvm.lifetime.start.p0(i64 8, ptr %11) #8
  call void @llvm.lifetime.start.p0(i64 10, ptr %12) #8
  %13 = load ptr, ptr %10, align 8, !tbaa !73
  store ptr %13, ptr %11, align 8, !tbaa !3
  %14 = load i32, ptr %6, align 4, !tbaa !70
  %15 = icmp eq i32 %14, 99
  br i1 %15, label %16, label %19

16:                                               ; preds = %5
  %17 = getelementptr inbounds [10 x i8], ptr %12, i64 0, i64 0
  %18 = call i32 (ptr, ptr, ...) @sprintf(ptr noundef %17, ptr noundef @.str.38) #8
  br label %22

19:                                               ; preds = %5
  %20 = getelementptr inbounds [10 x i8], ptr %12, i64 0, i64 0
  %21 = call i32 (ptr, ptr, ...) @sprintf(ptr noundef %20, ptr noundef @.str.39) #8
  br label %22

22:                                               ; preds = %19, %16
  %23 = load ptr, ptr %11, align 8, !tbaa !3
  %24 = getelementptr inbounds nuw %struct.KINMemRec, ptr %23, i32 0, i32 81
  %25 = load ptr, ptr %24, align 8, !tbaa !38
  %26 = icmp ne ptr %25, null
  br i1 %26, label %27, label %40

27:                                               ; preds = %22
  %28 = load ptr, ptr %11, align 8, !tbaa !3
  %29 = getelementptr inbounds nuw %struct.KINMemRec, ptr %28, i32 0, i32 81
  %30 = load ptr, ptr %29, align 8, !tbaa !38
  %31 = load ptr, ptr %7, align 8, !tbaa !71
  %32 = getelementptr inbounds [10 x i8], ptr %12, i64 0, i64 0
  %33 = load ptr, ptr %8, align 8, !tbaa !71
  %34 = call i32 (ptr, ptr, ...) @fprintf(ptr noundef %30, ptr noundef @.str.40, ptr noundef %31, ptr noundef %32, ptr noundef %33) #8
  %35 = load ptr, ptr %11, align 8, !tbaa !3
  %36 = getelementptr inbounds nuw %struct.KINMemRec, ptr %35, i32 0, i32 81
  %37 = load ptr, ptr %36, align 8, !tbaa !38
  %38 = load ptr, ptr %9, align 8, !tbaa !71
  %39 = call i32 (ptr, ptr, ...) @fprintf(ptr noundef %37, ptr noundef @.str.41, ptr noundef %38) #8
  br label %40

40:                                               ; preds = %27, %22
  call void @llvm.lifetime.end.p0(i64 10, ptr %12) #8
  call void @llvm.lifetime.end.p0(i64 8, ptr %11) #8
  ret void
}